target datalayout = "e-m:e-p270:32:32-p271:32:32-p272:64:64-i64:64-i128:128-f80:128-n8:16:32:64-S128"
target triple = "x86_64-pc-linux-gnu"

%struct.CVodeMemRec = type { ptr, double, ptr, ptr, i32, i32, double, double, ptr, i32, i32, ptr, ptr, i32, i32, ptr, i32, i32, double, double, ptr, i32, i32, i32, i32, ptr, ptr, ptr, i32, i32, ptr, ptr, ptr, i32, double, i32, i32, double, ptr, ptr, ptr, i32, ptr, ptr, i32, i32, i32, double, ptr, ptr, ptr, [13 x ptr], ptr, ptr, ptr, ptr, ptr, ptr, ptr, ptr, ptr, [13 x ptr], ptr, ptr, ptr, ptr, [13 x ptr], ptr, ptr, ptr, ptr, ptr, i32, [13 x ptr], ptr, ptr, ptr, ptr, ptr, i32, i32, double, i32, i32, i32, i32, i32, double, double, double, double, double, double, double, double, [14 x double], [6 x double], [13 x double], double, double, double, double, double, double, double, double, i32, double, double, i32, double, double, ptr, i32, i64, i32, i32, i32, double, double, double, double, double, double, double, double, double, double, double, double, i64, i32, i64, i64, i64, i64, i64, i64, i64, i64, i64, ptr, i64, i64, ptr, i64, i64, ptr, i64, i64, i64, i64, i64, i64, i32, double, double, double, i64, i64, i64, i64, i64, i64, ptr, i32, ptr, i32, ptr, i32, ptr, i32, i32, i64, i32, ptr, i32, ptr, ptr, ptr, ptr, ptr, ptr, i32, i32, ptr, ptr, ptr, ptr, ptr, i64, double, i32, i32, i64, double, double, double, i32, i32, double, i32, i32, i32, i32, i32, i32, i32, i32, i32, i32, i32, i32, i32, i32, i32, i32, ptr, i64, i32, [6 x [4 x double]], i32, i64, ptr, i32, ptr, ptr, double, double, double, ptr, ptr, ptr, double, double, i32, i32, i64, ptr, i32, ptr, i32, i32, [13 x double], ptr, ptr, ptr, i32, ptr, i32 }

@.str = private unnamed_addr constant [119 x i8] c"generated/home/dtcxzyw/WorkSpace/Projects/compilers/llvm-opt-benchmark/bench/sundials/sundials/src/cvodes/cvodes_nls.c\00", align 1
@.str.1 = private unnamed_addr constant [26 x i8] c"cvode_mem = NULL illegal.\00", align 1
@__func__.cvNlsConvTest = private unnamed_addr constant [14 x i8] c"cvNlsConvTest\00", align 1

; Function Attrs: nounwind uwtable
define internal i32 @cvNlsConvTest(ptr noundef %0, ptr noundef %1, ptr noundef %2, double noundef %3, ptr noundef %4, ptr noundef %5) #0 {
  %7 = alloca i32, align 4
  %8 = alloca ptr, align 8
  %9 = alloca ptr, align 8
  %10 = alloca ptr, align 8
  %11 = alloca double, align 8
  %12 = alloca ptr, align 8
  %13 = alloca ptr, align 8
  %14 = alloca ptr, align 8
  %15 = alloca i32, align 4
  %16 = alloca i32, align 4
  %17 = alloca double, align 8
  %18 = alloca double, align 8
  %19 = alloca i32, align 4
  store ptr %0, ptr %8, align 8, !tbaa !7
  store ptr %1, ptr %9, align 8, !tbaa !36
  store ptr %2, ptr %10, align 8, !tbaa !36
  store double %3, ptr %11, align 8, !tbaa !45
  store ptr %4, ptr %12, align 8, !tbaa !36
  store ptr %5, ptr %13, align 8, !tbaa !3
  call void @llvm.lifetime.start.p0(i64 8, ptr %14) #3
  call void @llvm.lifetime.start.p0(i64 4, ptr %15) #3
  call void @llvm.lifetime.start.p0(i64 4, ptr %16) #3
  call void @llvm.lifetime.start.p0(i64 8, ptr %17) #3
  call void @llvm.lifetime.start.p0(i64 8, ptr %18) #3
  %20 = load ptr, ptr %13, align 8, !tbaa !3
  %21 = icmp eq ptr %20, null
  br i1 %21, label %22, label %23

22:                                               ; preds = %6
  call void (ptr, i32, i32, ptr, ptr, ptr, ...) @cvProcessError(ptr noundef null, i32 noundef -21, i32 noundef 313, ptr noundef @__func__.cvNlsConvTest, ptr noundef @.str, ptr noundef @.str.1)
  store i32 -21, ptr %7, align 4
  store i32 1, ptr %19, align 4
  br label %110

23:                                               ; preds = %6
  %24 = load ptr, ptr %13, align 8, !tbaa !3
  store ptr %24, ptr %14, align 8, !tbaa !9
  %25 = load ptr, ptr %10, align 8, !tbaa !36
  %26 = load ptr, ptr %12, align 8, !tbaa !36
  %27 = call double @N_VWrmsNorm(ptr noundef %25, ptr noundef %26)
  store double %27, ptr %17, align 8, !tbaa !45
  %28 = load ptr, ptr %8, align 8, !tbaa !7
  %29 = call i32 @SUNNonlinSolGetCurIter(ptr noundef %28, ptr noundef %15)
  store i32 %29, ptr %16, align 4, !tbaa !32
  %30 = load i32, ptr %16, align 4, !tbaa !32
  %31 = icmp ne i32 %30, 0
  br i1 %31, label %32, label %33

32:                                               ; preds = %23
  store i32 -21, ptr %7, align 4
  store i32 1, ptr %19, align 4
  br label %110

33:                                               ; preds = %23
  %34 = load i32, ptr %15, align 4, !tbaa !32
  %35 = icmp sgt i32 %34, 0
  br i1 %35, label %36, label %62

36:                                               ; preds = %33
  %37 = load ptr, ptr %14, align 8, !tbaa !9
  %38 = getelementptr inbounds nuw %struct.CVodeMemRec, ptr %37, i32 0, i32 102
  %39 = load double, ptr %38, align 8, !tbaa !46
  %40 = fmul double 3.000000e-01, %39
  %41 = load double, ptr %17, align 8, !tbaa !45
  %42 = load ptr, ptr %14, align 8, !tbaa !9
  %43 = getelementptr inbounds nuw %struct.CVodeMemRec, ptr %42, i32 0, i32 104
  %44 = load double, ptr %43, align 8, !tbaa !47
  %45 = fdiv double %41, %44
  %46 = fcmp ogt double %40, %45
  br i1 %46, label %47, label %52

47:                                               ; preds = %36
  %48 = load ptr, ptr %14, align 8, !tbaa !9
  %49 = getelementptr inbounds nuw %struct.CVodeMemRec, ptr %48, i32 0, i32 102
  %50 = load double, ptr %49, align 8, !tbaa !46
  %51 = fmul double 3.000000e-01, %50
  br label %58

52:                                               ; preds = %36
  %53 = load double, ptr %17, align 8, !tbaa !45
  %54 = load ptr, ptr %14, align 8, !tbaa !9
  %55 = getelementptr inbounds nuw %struct.CVodeMemRec, ptr %54, i32 0, i32 104
  %56 = load double, ptr %55, align 8, !tbaa !47
  %57 = fdiv double %53, %56
  br label %58

58:                                               ; preds = %52, %47
  %59 = phi double [ %51, %47 ], [ %57, %52 ]
  %60 = load ptr, ptr %14, align 8, !tbaa !9
  %61 = getelementptr inbounds nuw %struct.CVodeMemRec, ptr %60, i32 0, i32 102
  store double %59, ptr %61, align 8, !tbaa !46
  br label %62

62:                                               ; preds = %58, %33
  %63 = load double, ptr %17, align 8, !tbaa !45
  %64 = load ptr, ptr %14, align 8, !tbaa !9
  %65 = getelementptr inbounds nuw %struct.CVodeMemRec, ptr %64, i32 0, i32 102
  %66 = load double, ptr %65, align 8, !tbaa !46
  %67 = fcmp olt double 1.000000e+00, %66
  br i1 %67, label %68, label %69

68:                                               ; preds = %62
  br label %73

69:                                               ; preds = %62
  %70 = load ptr, ptr %14, align 8, !tbaa !9
  %71 = getelementptr inbounds nuw %struct.CVodeMemRec, ptr %70, i32 0, i32 102
  %72 = load double, ptr %71, align 8, !tbaa !46
  br label %73

73:                                               ; preds = %69, %68
  %74 = phi double [ 1.000000e+00, %68 ], [ %72, %69 ]
  %75 = fmul double %63, %74
  %76 = load double, ptr %11, align 8, !tbaa !45
  %77 = fdiv double %75, %76
  store double %77, ptr %18, align 8, !tbaa !45
  %78 = load double, ptr %18, align 8, !tbaa !45
  %79 = fcmp ole double %78, 1.000000e+00
  br i1 %79, label %80, label %95

80:                                               ; preds = %73
  %81 = load i32, ptr %15, align 4, !tbaa !32
  %82 = icmp eq i32 %81, 0
  br i1 %82, label %83, label %85

83:                                               ; preds = %80
  %84 = load double, ptr %17, align 8, !tbaa !45
  br label %89

85:                                               ; preds = %80
  %86 = load ptr, ptr %9, align 8, !tbaa !36
  %87 = load ptr, ptr %12, align 8, !tbaa !36
  %88 = call double @N_VWrmsNorm(ptr noundef %86, ptr noundef %87)
  br label %89

89:                                               ; preds = %85, %83
  %90 = phi double [ %84, %83 ], [ %88, %85 ]
  %91 = load ptr, ptr %14, align 8, !tbaa !9
  %92 = getelementptr inbounds nuw %struct.CVodeMemRec, ptr %91, i32 0, i32 105
  store double %90, ptr %92, align 8, !tbaa !48
  %93 = load ptr, ptr %14, align 8, !tbaa !9
  %94 = getelementptr inbounds nuw %struct.CVodeMemRec, ptr %93, i32 0, i32 106
  store i32 1, ptr %94, align 8, !tbaa !33
  store i32 0, ptr %7, align 4
  store i32 1, ptr %19, align 4
  br label %110

95:                                               ; preds = %73
  %96 = load i32, ptr %15, align 4, !tbaa !32
  %97 = icmp sge i32 %96, 1
  br i1 %97, label %98, label %106

98:                                               ; preds = %95
  %99 = load double, ptr %17, align 8, !tbaa !45
  %100 = load ptr, ptr %14, align 8, !tbaa !9
  %101 = getelementptr inbounds nuw %struct.CVodeMemRec, ptr %100, i32 0, i32 104
  %102 = load double, ptr %101, align 8, !tbaa !47
  %103 = fmul double 2.000000e+00, %102
  %104 = fcmp ogt double %99, %103
  br i1 %104, label %105, label %106

105:                                              ; preds = %98
  store i32 902, ptr %7, align 4
  store i32 1, ptr %19, align 4
  br label %110

106:                                              ; preds = %98, %95
  %107 = load double, ptr %17, align 8, !tbaa !45
  %108 = load ptr, ptr %14, align 8, !tbaa !9
  %109 = getelementptr inbounds nuw %struct.CVodeMemRec, ptr %108, i32 0, i32 104
  store double %107, ptr %109, align 8, !tbaa !47
  store i32 901, ptr %7, align 4
  store i32 1, ptr %19, align 4
  br label %110

110:                                              ; preds = %106, %105, %89, %32, %22
  call void @llvm.lifetime.end.p0(i64 8, ptr %18) #3
  call void @llvm.lifetime.end.p0(i64 8, ptr %17) #3
  call void @llvm.lifetime.end.p0(i64 4, ptr %16) #3
  call void @llvm.lifetime.end.p0(i64 4, ptr %15) #3
  call void @llvm.lifetime.end.p0(i64 8, ptr %14) #3
  %111 = load i32, ptr %7, align 4
  ret i32 %111
}